; Function Attrs: nounwind uwtable
define noundef zeroext i1 @duckdb_je_pa_central_init(ptr noundef %0, ptr noundef %1, i1 noundef zeroext %2, ptr noundef %3) local_unnamed_addr #0 {
  br i1 %2, label %5, label %7

5:                                                ; preds = %4
  %6 = tail call zeroext i1 @duckdb_je_hpa_central_init(ptr noundef %0, ptr noundef %1, ptr noundef %3) #4
  br i1 %6, label %8, label %7

7:                                                ; preds = %5, %4
  br label %8

8:                                                ; preds = %5, %7
  %.0 = phi i1 [ false, %7 ], [ true, %5 ]
  ret i1 %.0
}